target datalayout = "e-m:e-p270:32:32-p271:32:32-p272:64:64-i64:64-i128:128-f80:128-n8:16:32:64-S128"
target triple = "x86_64-pc-linux-gnu"

%class.symbol = type { ptr }
%class.decl_plugin = type <{ ptr, ptr, i32, [4 x i8] }>
%class.decl = type { %class.ast, %class.symbol, ptr }
%class.ast = type { i32, i32, i32, i32 }
%class.vector.43 = type { ptr }
%class.decl_info = type <{ i32, i32, %class.vector.43, i8, [7 x i8] }>
%class.app = type { %class.expr, ptr, i32, %struct.app_flags, [0 x ptr] }
%class.expr = type { %class.ast }
%struct.app_flags = type <{ i16, i8, i8 }>

; Function Attrs: mustprogress nounwind uwtable
define linkonce_odr hidden noundef zeroext i1 @_ZNK9decl_info10is_decl_ofEii(ptr noundef nonnull align 8 dereferenceable(17) %0, i32 noundef %1, i32 noundef %2) #6 comdat align 2 {
  %4 = alloca ptr, align 8
  %5 = alloca i32, align 4
  %6 = alloca i32, align 4
  store ptr %0, ptr %4, align 8, !tbaa !188
  store i32 %1, ptr %5, align 4, !tbaa !55
  store i32 %2, ptr %6, align 4, !tbaa !55
  %7 = load ptr, ptr %4, align 8
  %8 = getelementptr inbounds nuw %class.decl_info, ptr %7, i32 0, i32 0
  %9 = load i32, ptr %8, align 8, !tbaa !308
  %10 = load i32, ptr %5, align 4, !tbaa !55
  %11 = icmp eq i32 %9, %10
  br i1 %11, label %12, label %17

12:                                               ; preds = %3
  %13 = load i32, ptr %6, align 4, !tbaa !55
  %14 = getelementptr inbounds nuw %class.decl_info, ptr %7, i32 0, i32 1
  %15 = load i32, ptr %14, align 4, !tbaa !311
  %16 = icmp eq i32 %13, %15
  br label %17

17:                                               ; preds = %12, %3
  %18 = phi i1 [ false, %3 ], [ %16, %12 ]
  ret i1 %18
}

; Function Attrs: mustprogress uwtable
define linkonce_odr hidden noundef zeroext i1 @_ZNK4decl10is_decl_ofEii(ptr noundef nonnull align 8 dereferenceable(32) %0, i32 noundef %1, i32 noundef %2) #4 comdat align 2 {
  %4 = alloca ptr, align 8
  %5 = alloca i32, align 4
  %6 = alloca i32, align 4
  store ptr %0, ptr %4, align 8, !tbaa !56
  store i32 %1, ptr %5, align 4, !tbaa !55
  store i32 %2, ptr %6, align 4, !tbaa !55
  %7 = load ptr, ptr %4, align 8
  %8 = getelementptr inbounds nuw %class.decl, ptr %7, i32 0, i32 2
  %9 = load ptr, ptr %8, align 8, !tbaa !69
  %10 = icmp ne ptr %9, null
  br i1 %10, label %11, label %17

11:                                               ; preds = %3
  %12 = getelementptr inbounds nuw %class.decl, ptr %7, i32 0, i32 2
  %13 = load ptr, ptr %12, align 8, !tbaa !69
  %14 = load i32, ptr %5, align 4, !tbaa !55
  %15 = load i32, ptr %6, align 4, !tbaa !55
  %16 = call noundef zeroext i1 @_ZNK9decl_info10is_decl_ofEii(ptr noundef nonnull align 8 dereferenceable(17) %13, i32 noundef %14, i32 noundef %15)
  br label %17

17:                                               ; preds = %11, %3
  %18 = phi i1 [ false, %3 ], [ %16, %11 ]
  ret i1 %18
}

; Function Attrs: mustprogress uwtable
define linkonce_odr hidden noundef zeroext i1 @_ZNK3app9is_app_ofEii(ptr noundef nonnull align 8 dereferenceable(32) %0, i32 noundef %1, i32 noundef %2) #4 comdat align 2 {
  %4 = alloca ptr, align 8
  %5 = alloca i32, align 4
  %6 = alloca i32, align 4
  store ptr %0, ptr %4, align 8, !tbaa !227
  store i32 %1, ptr %5, align 4, !tbaa !55
  store i32 %2, ptr %6, align 4, !tbaa !55
  %7 = load ptr, ptr %4, align 8
  %8 = getelementptr inbounds nuw %class.app, ptr %7, i32 0, i32 1
  %9 = load ptr, ptr %8, align 8, !tbaa !247
  %10 = load i32, ptr %5, align 4, !tbaa !55
  %11 = load i32, ptr %6, align 4, !tbaa !55
  %12 = call noundef zeroext i1 @_ZNK4decl10is_decl_ofEii(ptr noundef nonnull align 8 dereferenceable(32) %9, i32 noundef %10, i32 noundef %11)
  ret i1 %12
}

; Function Attrs: inlinehint mustprogress nounwind uwtable
define linkonce_odr hidden noundef ptr @_Z6to_appPK3ast(ptr noundef %0) #5 comdat {
  %2 = alloca ptr, align 8
  store ptr %0, ptr %2, align 8, !tbaa !50
  %3 = load ptr, ptr %2, align 8, !tbaa !50
  ret ptr %3
}

; Function Attrs: mustprogress nounwind uwtable
define linkonce_odr hidden noundef i32 @_ZNK3ast8get_kindEv(ptr noundef nonnull align 4 dereferenceable(16) %0) #6 comdat align 2 {
  %2 = alloca ptr, align 8
  store ptr %0, ptr %2, align 8, !tbaa !50
  %3 = load ptr, ptr %2, align 8
  %4 = getelementptr inbounds nuw %class.ast, ptr %3, i32 0, i32 1
  %5 = load i32, ptr %4, align 4
  %6 = and i32 %5, 65535
  ret i32 %6
}

; Function Attrs: inlinehint mustprogress nounwind uwtable
define linkonce_odr hidden noundef ptr @_Z6to_appP3ast(ptr noundef %0) #5 comdat {
  %2 = alloca ptr, align 8
  store ptr %0, ptr %2, align 8, !tbaa !50
  %3 = load ptr, ptr %2, align 8, !tbaa !50
  ret ptr %3
}

; Function Attrs: inlinehint mustprogress nounwind uwtable
define linkonce_odr hidden noundef zeroext i1 @_Z6is_appPK3ast(ptr noundef %0) #5 comdat {
  %2 = alloca ptr, align 8
  store ptr %0, ptr %2, align 8, !tbaa !50
  %3 = load ptr, ptr %2, align 8, !tbaa !50
  %4 = call noundef i32 @_ZNK3ast8get_kindEv(ptr noundef nonnull align 4 dereferenceable(16) %3)
  %5 = icmp eq i32 %4, 0
  ret i1 %5
}

; Function Attrs: mustprogress nounwind uwtable
define linkonce_odr hidden noundef ptr @_ZNK3app3endEv(ptr noundef nonnull align 8 dereferenceable(32) %0) #6 comdat align 2 {
  %2 = alloca ptr, align 8
  store ptr %0, ptr %2, align 8, !tbaa !227
  %3 = load ptr, ptr %2, align 8
  %4 = getelementptr inbounds nuw %class.app, ptr %3, i32 0, i32 4
  %5 = getelementptr inbounds [0 x ptr], ptr %4, i64 0, i64 0
  %6 = getelementptr inbounds nuw %class.app, ptr %3, i32 0, i32 2
  %7 = load i32, ptr %6, align 8, !tbaa !232
  %8 = zext i32 %7 to i64
  %9 = getelementptr inbounds nuw ptr, ptr %5, i64 %8
  ret ptr %9
}

; Function Attrs: mustprogress nounwind uwtable
define linkonce_odr hidden noundef ptr @_ZNK3app5beginEv(ptr noundef nonnull align 8 dereferenceable(32) %0) #6 comdat align 2 {
  %2 = alloca ptr, align 8
  store ptr %0, ptr %2, align 8, !tbaa !227
  %3 = load ptr, ptr %2, align 8
  %4 = getelementptr inbounds nuw %class.app, ptr %3, i32 0, i32 4
  %5 = getelementptr inbounds [0 x ptr], ptr %4, i64 0, i64 0
  ret ptr %5
}

; Function Attrs: mustprogress nounwind uwtable
define linkonce_odr hidden noundef ptr @_ZNK3app7get_argEj(ptr noundef nonnull align 8 dereferenceable(32) %0, i32 noundef %1) #6 comdat align 2 {
  %3 = alloca ptr, align 8
  %4 = alloca i32, align 4
  store ptr %0, ptr %3, align 8, !tbaa !227
  store i32 %1, ptr %4, align 4, !tbaa !55
  %5 = load ptr, ptr %3, align 8
  %6 = getelementptr inbounds nuw %class.app, ptr %5, i32 0, i32 4
  %7 = load i32, ptr %4, align 4, !tbaa !55
  %8 = zext i32 %7 to i64
  %9 = getelementptr inbounds nuw [0 x ptr], ptr %6, i64 0, i64 %8
  %10 = load ptr, ptr %9, align 8, !tbaa !229
  ret ptr %10
}

; Function Attrs: inlinehint mustprogress uwtable
define linkonce_odr hidden noundef zeroext i1 @_Z9is_app_ofPK4exprii(ptr noundef %0, i32 noundef %1, i32 noundef %2) #8 comdat {
  %4 = alloca ptr, align 8
  %5 = alloca i32, align 4
  %6 = alloca i32, align 4
  store ptr %0, ptr %4, align 8, !tbaa !229
  store i32 %1, ptr %5, align 4, !tbaa !55
  store i32 %2, ptr %6, align 4, !tbaa !55
  %7 = load ptr, ptr %4, align 8, !tbaa !229
  %8 = call noundef i32 @_ZNK3ast8get_kindEv(ptr noundef nonnull align 4 dereferenceable(16) %7)
  %9 = icmp eq i32 %8, 0
  br i1 %9, label %10, label %16

10:                                               ; preds = %3
  %11 = load ptr, ptr %4, align 8, !tbaa !229
  %12 = call noundef ptr @_Z6to_appPK3ast(ptr noundef %11)
  %13 = load i32, ptr %5, align 4, !tbaa !55
  %14 = load i32, ptr %6, align 4, !tbaa !55
  %15 = call noundef zeroext i1 @_ZNK3app9is_app_ofEii(ptr noundef nonnull align 8 dereferenceable(32) %12, i32 noundef %13, i32 noundef %14)
  br label %16

16:                                               ; preds = %10, %3
  %17 = phi i1 [ false, %3 ], [ %15, %10 ]
  ret i1 %17
}

; Function Attrs: mustprogress uwtable
define hidden noundef zeroext i1 @_ZNK15seq_decl_plugin8is_valueEP3app(ptr noundef nonnull align 8 dereferenceable(96) %0, ptr noundef %1) unnamed_addr #4 align 2 {
  %3 = alloca i1, align 1
  %4 = alloca ptr, align 8
  %5 = alloca ptr, align 8
  %6 = alloca i8, align 1
  %7 = alloca ptr, align 8
  %8 = alloca ptr, align 8
  %9 = alloca ptr, align 8
  %10 = alloca i32, align 4
  %11 = alloca ptr, align 8
  store ptr %0, ptr %4, align 8, !tbaa !3
  store ptr %1, ptr %5, align 8, !tbaa !227
  %12 = load ptr, ptr %4, align 8
  br label %13

13:                                               ; preds = %2, %89
  %14 = load ptr, ptr %5, align 8, !tbaa !227
  %15 = getelementptr inbounds nuw %class.decl_plugin, ptr %12, i32 0, i32 2
  %16 = load i32, ptr %15, align 8, !tbaa !36
  %17 = call noundef zeroext i1 @_Z9is_app_ofPK4exprii(ptr noundef %14, i32 noundef %16, i32 noundef 1)
  br i1 %17, label %18, label %19

18:                                               ; preds = %13
  store i1 true, ptr %3, align 1
  br label %92

19:                                               ; preds = %13
  %20 = load ptr, ptr %5, align 8, !tbaa !227
  %21 = getelementptr inbounds nuw %class.decl_plugin, ptr %12, i32 0, i32 2
  %22 = load i32, ptr %21, align 8, !tbaa !36
  %23 = call noundef zeroext i1 @_Z9is_app_ofPK4exprii(ptr noundef %20, i32 noundef %22, i32 noundef 41)
  br i1 %23, label %24, label %25

24:                                               ; preds = %19
  store i1 true, ptr %3, align 1
  br label %92

25:                                               ; preds = %19
  %26 = load ptr, ptr %5, align 8, !tbaa !227
  %27 = getelementptr inbounds nuw %class.decl_plugin, ptr %12, i32 0, i32 2
  %28 = load i32, ptr %27, align 8, !tbaa !36
  %29 = call noundef zeroext i1 @_Z9is_app_ofPK4exprii(ptr noundef %26, i32 noundef %28, i32 noundef 0)
  br i1 %29, label %30, label %37

30:                                               ; preds = %25
  %31 = getelementptr inbounds nuw %class.decl_plugin, ptr %12, i32 0, i32 1
  %32 = load ptr, ptr %31, align 8, !tbaa !35
  %33 = load ptr, ptr %5, align 8, !tbaa !227
  %34 = call noundef ptr @_ZNK3app7get_argEj(ptr noundef nonnull align 8 dereferenceable(32) %33, i32 noundef 0)
  %35 = call noundef zeroext i1 @_ZNK11ast_manager8is_valueEP4expr(ptr noundef nonnull align 8 dereferenceable(976) %32, ptr noundef %34)
  br i1 %35, label %36, label %37

36:                                               ; preds = %30
  store i1 true, ptr %3, align 1
  br label %92

37:                                               ; preds = %30, %25
  %38 = load ptr, ptr %5, align 8, !tbaa !227
  %39 = getelementptr inbounds nuw %class.decl_plugin, ptr %12, i32 0, i32 2
  %40 = load i32, ptr %39, align 8, !tbaa !36
  %41 = call noundef zeroext i1 @_Z9is_app_ofPK4exprii(ptr noundef %38, i32 noundef %40, i32 noundef 2)
  br i1 %41, label %42, label %91

42:                                               ; preds = %37
  call void @llvm.lifetime.start.p0(i64 1, ptr %6) #3
  store i8 1, ptr %6, align 1, !tbaa !77
  call void @llvm.lifetime.start.p0(i64 8, ptr %7) #3
  %43 = load ptr, ptr %5, align 8, !tbaa !227
  store ptr %43, ptr %7, align 8, !tbaa !227
  call void @llvm.lifetime.start.p0(i64 8, ptr %8) #3
  %44 = load ptr, ptr %7, align 8, !tbaa !227
  %45 = call noundef ptr @_ZNK3app5beginEv(ptr noundef nonnull align 8 dereferenceable(32) %44)
  store ptr %45, ptr %8, align 8, !tbaa !228
  call void @llvm.lifetime.start.p0(i64 8, ptr %9) #3
  %46 = load ptr, ptr %7, align 8, !tbaa !227
  %47 = call noundef ptr @_ZNK3app3endEv(ptr noundef nonnull align 8 dereferenceable(32) %46)
  store ptr %47, ptr %9, align 8, !tbaa !228
  br label %48

48:                                               ; preds = %75, %42
  %49 = load ptr, ptr %8, align 8, !tbaa !228
  %50 = load ptr, ptr %9, align 8, !tbaa !228
  %51 = icmp ne ptr %49, %50
  br i1 %51, label %53, label %52

52:                                               ; preds = %48
  store i32 4, ptr %10, align 4
  br label %78

53:                                               ; preds = %48
  call void @llvm.lifetime.start.p0(i64 8, ptr %11) #3
  %54 = load ptr, ptr %8, align 8, !tbaa !228
  %55 = load ptr, ptr %54, align 8, !tbaa !229
  store ptr %55, ptr %11, align 8, !tbaa !229
  %56 = load i8, ptr %6, align 1, !tbaa !77, !range !78, !noundef !79
  %57 = trunc i8 %56 to i1
  br i1 %57, label %58, label %59

58:                                               ; preds = %53
  store i8 0, ptr %6, align 1, !tbaa !77
  br label %71

59:                                               ; preds = %53
  %60 = load ptr, ptr %11, align 8, !tbaa !229
  %61 = call noundef zeroext i1 @_Z6is_appPK3ast(ptr noundef %60)
  br i1 %61, label %62, label %70

62:                                               ; preds = %59
  %63 = load ptr, ptr %11, align 8, !tbaa !229
  %64 = call noundef ptr @_Z6to_appP3ast(ptr noundef %63)
  %65 = load ptr, ptr %12, align 8, !tbaa !8
  %66 = getelementptr inbounds ptr, ptr %65, i64 9
  %67 = load ptr, ptr %66, align 8
  %68 = call noundef zeroext i1 %67(ptr noundef nonnull align 8 dereferenceable(96) %12, ptr noundef %64)
  br i1 %68, label %70, label %69

69:                                               ; preds = %62
  store i1 false, ptr %3, align 1
  store i32 1, ptr %10, align 4
  br label %72

70:                                               ; preds = %62, %59
  br label %71

71:                                               ; preds = %70, %58
  store i32 0, ptr %10, align 4
  br label %72

72:                                               ; preds = %71, %69
  call void @llvm.lifetime.end.p0(i64 8, ptr %11) #3
  %73 = load i32, ptr %10, align 4
  switch i32 %73, label %78 [
    i32 0, label %74
  ]

74:                                               ; preds = %72
  br label %75

75:                                               ; preds = %74
  %76 = load ptr, ptr %8, align 8, !tbaa !228
  %77 = getelementptr inbounds nuw ptr, ptr %76, i32 1
  store ptr %77, ptr %8, align 8, !tbaa !228
  br label %48

78:                                               ; preds = %72, %52
  call void @llvm.lifetime.end.p0(i64 8, ptr %9) #3
  call void @llvm.lifetime.end.p0(i64 8, ptr %8) #3
  call void @llvm.lifetime.end.p0(i64 8, ptr %7) #3
  %79 = load i32, ptr %10, align 4
  switch i32 %79, label %89 [
    i32 4, label %80
  ]

80:                                               ; preds = %78
  %81 = load ptr, ptr %5, align 8, !tbaa !227
  %82 = call noundef ptr @_ZNK3app7get_argEj(ptr noundef nonnull align 8 dereferenceable(32) %81, i32 noundef 0)
  %83 = call noundef zeroext i1 @_Z6is_appPK3ast(ptr noundef %82)
  br i1 %83, label %85, label %84

84:                                               ; preds = %80
  store i1 false, ptr %3, align 1
  store i32 1, ptr %10, align 4
  br label %89

85:                                               ; preds = %80
  %86 = load ptr, ptr %5, align 8, !tbaa !227
  %87 = call noundef ptr @_ZNK3app7get_argEj(ptr noundef nonnull align 8 dereferenceable(32) %86, i32 noundef 0)
  %88 = call noundef ptr @_Z6to_appP3ast(ptr noundef %87)
  store ptr %88, ptr %5, align 8, !tbaa !227
  store i32 2, ptr %10, align 4
  br label %89, !llvm.loop !231

89:                                               ; preds = %85, %84, %78
  call void @llvm.lifetime.end.p0(i64 1, ptr %6) #3
  %90 = load i32, ptr %10, align 4
  switch i32 %90, label %94 [
    i32 1, label %92
    i32 2, label %13
  ]

91:                                               ; preds = %37
  store i1 false, ptr %3, align 1
  br label %92

92:                                               ; preds = %91, %89, %36, %24, %18
  %93 = load i1, ptr %3, align 1
  ret i1 %93

94:                                               ; preds = %89
  unreachable
}