; Function Attrs: mustprogress uwtable
define hidden noundef zeroext i1 @_ZNK15seq_decl_plugin8is_valueEP3app(ptr noundef nonnull align 8 dereferenceable(96) %0, ptr noundef readonly captures(address) %1) unnamed_addr #3 align 2 {
  %3 = getelementptr inbounds nuw i8, ptr %0, i64 16
  %4 = getelementptr inbounds nuw i8, ptr %0, i64 8
  %.phi.trans.insert = getelementptr inbounds nuw i8, ptr %1, i64 4
  %.pre = load i32, ptr %.phi.trans.insert, align 4
  br label %5

5:                                                ; preds = %._crit_edge, %2
  %6 = phi i32 [ %.pre, %2 ], [ %73, %._crit_edge ]
  %.025 = phi ptr [ %1, %2 ], [ %71, %._crit_edge ]
  %7 = load i32, ptr %3, align 8, !tbaa !10
  %8 = getelementptr inbounds nuw i8, ptr %.025, i64 4
  %9 = and i32 %6, 65535
  %10 = icmp eq i32 %9, 0
  br i1 %10, label %11, label %_Z9is_app_ofPK4exprii.exit34.thread

11:                                               ; preds = %5
  %12 = getelementptr inbounds nuw i8, ptr %.025, i64 16
  %13 = load ptr, ptr %12, align 8, !tbaa !186
  %14 = getelementptr inbounds nuw i8, ptr %13, i64 24
  %15 = load ptr, ptr %14, align 8, !tbaa !41
  %.not.i.i.i = icmp eq ptr %15, null
  br i1 %.not.i.i.i, label %_Z9is_app_ofPK4exprii.exit34.thread, label %_Z9is_app_ofPK4exprii.exit

_Z9is_app_ofPK4exprii.exit:                       ; preds = %11
  %16 = load i32, ptr %15, align 8, !tbaa !44
  %17 = icmp eq i32 %16, %7
  %18 = getelementptr inbounds nuw i8, ptr %15, i64 4
  %19 = load i32, ptr %18, align 4
  %20 = icmp eq i32 %19, 1
  %21 = select i1 %17, i1 %20, i1 false
  br i1 %21, label %_Z9is_app_ofPK4exprii.exit36.thread, label %_Z9is_app_ofPK4exprii.exit32

_Z9is_app_ofPK4exprii.exit32:                     ; preds = %_Z9is_app_ofPK4exprii.exit
  %22 = load i32, ptr %15, align 8, !tbaa !44
  %23 = icmp eq i32 %22, %7
  %24 = getelementptr inbounds nuw i8, ptr %15, i64 4
  %25 = load i32, ptr %24, align 4
  %26 = icmp eq i32 %25, 41
  %27 = select i1 %23, i1 %26, i1 false
  br i1 %27, label %_Z9is_app_ofPK4exprii.exit36.thread, label %_Z9is_app_ofPK4exprii.exit34

_Z9is_app_ofPK4exprii.exit34:                     ; preds = %_Z9is_app_ofPK4exprii.exit32
  %28 = load i32, ptr %15, align 8, !tbaa !44
  %29 = icmp eq i32 %28, %7
  %30 = getelementptr inbounds nuw i8, ptr %15, i64 4
  %31 = load i32, ptr %30, align 4
  %32 = icmp eq i32 %31, 0
  %33 = select i1 %29, i1 %32, i1 false
  br i1 %33, label %34, label %_Z9is_app_ofPK4exprii.exit34.thread

34:                                               ; preds = %_Z9is_app_ofPK4exprii.exit34
  %35 = load ptr, ptr %4, align 8, !tbaa !3
  %36 = getelementptr inbounds nuw i8, ptr %.025, i64 32
  %37 = load ptr, ptr %36, align 8, !tbaa !178
  %38 = tail call noundef zeroext i1 @_ZNK11ast_manager8is_valueEP4expr(ptr noundef nonnull align 8 dereferenceable(976) %35, ptr noundef %37)
  br i1 %38, label %_Z9is_app_ofPK4exprii.exit36.thread, label %._Z9is_app_ofPK4exprii.exit34.thread_crit_edge

._Z9is_app_ofPK4exprii.exit34.thread_crit_edge:   ; preds = %34
  %.pre58 = load i32, ptr %3, align 8, !tbaa !10
  %.pre59 = load i32, ptr %8, align 4
  br label %_Z9is_app_ofPK4exprii.exit34.thread

_Z9is_app_ofPK4exprii.exit34.thread:              ; preds = %11, %._Z9is_app_ofPK4exprii.exit34.thread_crit_edge, %5, %_Z9is_app_ofPK4exprii.exit34
  %39 = phi i32 [ %.pre59, %._Z9is_app_ofPK4exprii.exit34.thread_crit_edge ], [ %6, %5 ], [ %6, %_Z9is_app_ofPK4exprii.exit34 ], [ %6, %11 ]
  %40 = phi i32 [ %.pre58, %._Z9is_app_ofPK4exprii.exit34.thread_crit_edge ], [ %7, %5 ], [ %7, %_Z9is_app_ofPK4exprii.exit34 ], [ %7, %11 ]
  %41 = and i32 %39, 65535
  %42 = icmp eq i32 %41, 0
  br i1 %42, label %43, label %_Z9is_app_ofPK4exprii.exit36.thread

43:                                               ; preds = %_Z9is_app_ofPK4exprii.exit34.thread
  %44 = getelementptr inbounds nuw i8, ptr %.025, i64 16
  %45 = load ptr, ptr %44, align 8, !tbaa !186
  %46 = getelementptr inbounds nuw i8, ptr %45, i64 24
  %47 = load ptr, ptr %46, align 8, !tbaa !41
  %.not.i.i.i35 = icmp eq ptr %47, null
  br i1 %.not.i.i.i35, label %_Z9is_app_ofPK4exprii.exit36.thread, label %_Z9is_app_ofPK4exprii.exit36

_Z9is_app_ofPK4exprii.exit36:                     ; preds = %43
  %48 = load i32, ptr %47, align 8, !tbaa !44
  %49 = icmp eq i32 %48, %40
  %50 = getelementptr inbounds nuw i8, ptr %47, i64 4
  %51 = load i32, ptr %50, align 4
  %52 = icmp eq i32 %51, 2
  %53 = select i1 %49, i1 %52, i1 false
  br i1 %53, label %54, label %_Z9is_app_ofPK4exprii.exit36.thread

54:                                               ; preds = %_Z9is_app_ofPK4exprii.exit36
  %.ptr = getelementptr inbounds nuw i8, ptr %.025, i64 32
  %55 = getelementptr inbounds nuw i8, ptr %.025, i64 24
  %56 = load i32, ptr %55, align 8, !tbaa !191
  %57 = zext i32 %56 to i64
  %.idx = shl nuw nsw i64 %57, 3
  %58 = getelementptr inbounds nuw i8, ptr %.025, i64 %.idx
  %.ptr56 = getelementptr inbounds nuw i8, ptr %58, i64 32
  %.not53 = icmp eq i32 %56, 0
  br i1 %.not53, label %._crit_edge, label %.lr.ph

.lr.ph:                                           ; preds = %54, %.thread40
  %.02755 = phi ptr [ %70, %.thread40 ], [ %.ptr, %54 ]
  %.02854 = phi i1 [ false, %.thread40 ], [ true, %54 ]
  %59 = load ptr, ptr %.02755, align 8, !tbaa !178
  br i1 %.02854, label %.thread40, label %60

60:                                               ; preds = %.lr.ph
  %61 = getelementptr inbounds nuw i8, ptr %59, i64 4
  %62 = load i32, ptr %61, align 4
  %63 = and i32 %62, 65535
  %64 = icmp eq i32 %63, 0
  br i1 %64, label %65, label %.thread40

65:                                               ; preds = %60
  %66 = load ptr, ptr %0, align 8, !tbaa !11
  %67 = getelementptr inbounds nuw i8, ptr %66, i64 72
  %68 = load ptr, ptr %67, align 8
  %69 = tail call noundef zeroext i1 %68(ptr noundef nonnull align 8 dereferenceable(96) %0, ptr noundef nonnull %59)
  br i1 %69, label %.thread40, label %_Z9is_app_ofPK4exprii.exit36.thread

.thread40:                                        ; preds = %60, %.lr.ph, %65
  %70 = getelementptr inbounds nuw i8, ptr %.02755, i64 8
  %.not = icmp eq ptr %70, %.ptr56
  br i1 %.not, label %._crit_edge, label %.lr.ph

._crit_edge:                                      ; preds = %.thread40, %54
  %71 = load ptr, ptr %.ptr, align 8, !tbaa !178
  %72 = getelementptr inbounds nuw i8, ptr %71, i64 4
  %73 = load i32, ptr %72, align 4
  %74 = and i32 %73, 65535
  %75 = icmp eq i32 %74, 0
  br i1 %75, label %5, label %_Z9is_app_ofPK4exprii.exit36.thread

_Z9is_app_ofPK4exprii.exit36.thread:              ; preds = %._crit_edge, %43, %_Z9is_app_ofPK4exprii.exit34.thread, %_Z9is_app_ofPK4exprii.exit36, %34, %_Z9is_app_ofPK4exprii.exit32, %_Z9is_app_ofPK4exprii.exit, %65
  %.1 = phi i1 [ false, %65 ], [ false, %._crit_edge ], [ false, %43 ], [ false, %_Z9is_app_ofPK4exprii.exit34.thread ], [ false, %_Z9is_app_ofPK4exprii.exit36 ], [ true, %34 ], [ true, %_Z9is_app_ofPK4exprii.exit32 ], [ true, %_Z9is_app_ofPK4exprii.exit ]
  ret i1 %.1
}